target datalayout = "e-m:e-p270:32:32-p271:32:32-p272:64:64-i64:64-i128:128-f80:128-n8:16:32:64-S128"
target triple = "x86_64-pc-linux-gnu"

%"class.llvm::MCSymbol" = type { ptr, i64, i32, %union.anon }
%union.anon = type { i64 }

; Function Attrs: mustprogress nounwind uwtable
define dso_local noundef i32 @_ZNK4llvm11MCSymbolELF7getTypeEv(ptr noundef nonnull align 8 dereferenceable(40) %0) #0 align 2 {
  %2 = alloca i32, align 4
  %3 = alloca ptr, align 8
  %4 = alloca i32, align 4
  store ptr %0, ptr %3, align 8
  %5 = load ptr, ptr %3, align 8
  %6 = getelementptr inbounds nuw %"class.llvm::MCSymbol", ptr %5, i32 0, i32 1
  %7 = load i64, ptr %6, align 8
  %8 = lshr i64 %7, 32
  %9 = and i64 %8, 65535
  %10 = trunc i64 %9 to i32
  %11 = ashr i32 %10, 0
  %12 = and i32 %11, 7
  store i32 %12, ptr %4, align 4
  %13 = load i32, ptr %4, align 4
  switch i32 %13, label %14 [
    i32 0, label %15
    i32 1, label %16
    i32 2, label %17
    i32 3, label %18
    i32 4, label %19
    i32 5, label %20
    i32 6, label %21
  ]

14:                                               ; preds = %1
  unreachable

15:                                               ; preds = %1
  store i32 0, ptr %2, align 4
  br label %22

16:                                               ; preds = %1
  store i32 1, ptr %2, align 4
  br label %22

17:                                               ; preds = %1
  store i32 2, ptr %2, align 4
  br label %22

18:                                               ; preds = %1
  store i32 3, ptr %2, align 4
  br label %22

19:                                               ; preds = %1
  store i32 5, ptr %2, align 4
  br label %22

20:                                               ; preds = %1
  store i32 6, ptr %2, align 4
  br label %22

21:                                               ; preds = %1
  store i32 10, ptr %2, align 4
  br label %22

22:                                               ; preds = %21, %20, %19, %18, %17, %16, %15
  %23 = load i32, ptr %2, align 4
  ret i32 %23
}