; Function Attrs: mustprogress nofree norecurse nosync nounwind willreturn memory(argmem: read) uwtable
define dso_local noundef range(i32 0, 11) i32 @_ZNK4llvm11MCSymbolELF7getTypeEv(ptr nocapture noundef nonnull readonly align 8 dereferenceable(40) %0) local_unnamed_addr #2 align 2 {
switch.lookup:
  %1 = getelementptr inbounds nuw i8, ptr %0, i64 8
  %2 = load i64, ptr %1, align 8
  %3 = lshr i64 %2, 32
  %4 = and i64 %3, 7
  %switch.gep = getelementptr inbounds [7 x i32], ptr @switch.table._ZNK4llvm11MCSymbolELF7getTypeEv, i64 0, i64 %4
  %switch.load = load i32, ptr %switch.gep, align 4
  ret i32 %switch.load
}